target datalayout = "e-m:e-p270:32:32-p271:32:32-p272:64:64-i64:64-i128:128-f80:128-n8:16:32:64-S128"
target triple = "x86_64-pc-linux-gnu"

@.str.4 = private unnamed_addr constant [2 x i8] c"\0A\00", align 1
@.str.5 = private unnamed_addr constant [33 x i8] c"    ice40_wrapcarry [selection]\0A\00", align 1
@.str.6 = private unnamed_addr constant [82 x i8] c"Wrap manually instantiated SB_CARRY cells, along with their associated SB_LUT4s,\0A\00", align 1
@.str.7 = private unnamed_addr constant [81 x i8] c"into an internal $__ICE40_CARRY_WRAPPER cell for preservation across technology\0A\00", align 1
@.str.8 = private unnamed_addr constant [10 x i8] c"mapping.\0A\00", align 1
@.str.9 = private unnamed_addr constant [77 x i8] c"Attributes on both cells will have their names prefixed with 'SB_CARRY.' or\0A\00", align 1
@.str.10 = private unnamed_addr constant [47 x i8] c"'SB_LUT4.' and attached to the wrapping cell.\0A\00", align 1
@.str.11 = private unnamed_addr constant [73 x i8] c"A (* keep *) attribute on either cell will be logically OR-ed together.\0A\00", align 1
@.str.12 = private unnamed_addr constant [13 x i8] c"    -unwrap\0A\00", align 1
@.str.13 = private unnamed_addr constant [79 x i8] c"        unwrap $__ICE40_CARRY_WRAPPER cells back into SB_CARRYs and SB_LUT4s,\0A\00", align 1
@.str.14 = private unnamed_addr constant [47 x i8] c"        including restoring their attributes.\0A\00", align 1

; Function Attrs: mustprogress uwtable
define internal void @_ZN12_GLOBAL__N_118Ice40WrapCarryPass4helpEv(ptr noundef nonnull align 8 dereferenceable(104) %0) unnamed_addr #4 align 2 {
  %2 = alloca ptr, align 8
  store ptr %0, ptr %2, align 8, !tbaa !6
  call void (ptr, ...) @_ZN5Yosys3logEPKcz(ptr noundef @.str.4)
  call void (ptr, ...) @_ZN5Yosys3logEPKcz(ptr noundef @.str.5)
  call void (ptr, ...) @_ZN5Yosys3logEPKcz(ptr noundef @.str.4)
  call void (ptr, ...) @_ZN5Yosys3logEPKcz(ptr noundef @.str.6)
  call void (ptr, ...) @_ZN5Yosys3logEPKcz(ptr noundef @.str.7)
  call void (ptr, ...) @_ZN5Yosys3logEPKcz(ptr noundef @.str.8)
  call void (ptr, ...) @_ZN5Yosys3logEPKcz(ptr noundef @.str.4)
  call void (ptr, ...) @_ZN5Yosys3logEPKcz(ptr noundef @.str.9)
  call void (ptr, ...) @_ZN5Yosys3logEPKcz(ptr noundef @.str.10)
  call void (ptr, ...) @_ZN5Yosys3logEPKcz(ptr noundef @.str.11)
  call void (ptr, ...) @_ZN5Yosys3logEPKcz(ptr noundef @.str.4)
  call void (ptr, ...) @_ZN5Yosys3logEPKcz(ptr noundef @.str.12)
  call void (ptr, ...) @_ZN5Yosys3logEPKcz(ptr noundef @.str.13)
  call void (ptr, ...) @_ZN5Yosys3logEPKcz(ptr noundef @.str.14)
  call void (ptr, ...) @_ZN5Yosys3logEPKcz(ptr noundef @.str.4)
  ret void
}